target datalayout = "e-m:e-p270:32:32-p271:32:32-p272:64:64-i64:64-i128:128-f80:128-n8:16:32:64-S128"
target triple = "x86_64-pc-linux-gnu"

%"struct.Luau::ToStringOptions" = type { i8, i8, i8, i8, i8, i8, i8, i64, i64, i64, %"struct.Luau::ToStringNameMap", %"class.std::shared_ptr", %"class.std::vector.37" }
%"struct.Luau::ToStringNameMap" = type { %"class.std::unordered_map", %"class.std::unordered_map.17" }
%"class.std::unordered_map" = type { %"class.std::_Hashtable" }
%"class.std::_Hashtable" = type { ptr, i64, %"struct.std::__detail::_Hash_node_base", i64, %"struct.std::__detail::_Prime_rehash_policy", ptr }
%"struct.std::__detail::_Hash_node_base" = type { ptr }
%"struct.std::__detail::_Prime_rehash_policy" = type { float, i64 }
%"class.std::unordered_map.17" = type { %"class.std::_Hashtable.18" }
%"class.std::_Hashtable.18" = type { ptr, i64, %"struct.std::__detail::_Hash_node_base", i64, %"struct.std::__detail::_Prime_rehash_policy", ptr }
%"class.std::shared_ptr" = type { %"class.std::__shared_ptr" }
%"class.std::__shared_ptr" = type { ptr, %"class.std::__shared_count" }
%"class.std::__shared_count" = type { ptr }
%"class.std::vector.37" = type { %"struct.std::_Vector_base.38" }
%"struct.std::_Vector_base.38" = type { %"struct.std::_Vector_base<std::__cxx11::basic_string<char>, std::allocator<std::__cxx11::basic_string<char>>>::_Vector_impl" }
%"struct.std::_Vector_base<std::__cxx11::basic_string<char>, std::allocator<std::__cxx11::basic_string<char>>>::_Vector_impl" = type { %"struct.std::_Vector_base<std::__cxx11::basic_string<char>, std::allocator<std::__cxx11::basic_string<char>>>::_Vector_impl_data" }
%"struct.std::_Vector_base<std::__cxx11::basic_string<char>, std::allocator<std::__cxx11::basic_string<char>>>::_Vector_impl_data" = type { ptr, ptr, ptr }
%"struct.Luau::TypeStringifier" = type { ptr }
%"struct.Luau::StringifierState" = type { ptr, ptr, %"class.Luau::DenseHashMap", %"class.Luau::DenseHashMap.1", %"class.Luau::Set", %"class.Luau::DenseHashSet", i64, i8, i32 }
%"class.Luau::DenseHashMap" = type { %"class.Luau::detail::DenseHashTable" }
%"class.Luau::detail::DenseHashTable" = type <{ ptr, i64, i64, ptr, [8 x i8] }>
%"class.Luau::DenseHashMap.1" = type { %"class.Luau::detail::DenseHashTable.2" }
%"class.Luau::detail::DenseHashTable.2" = type <{ ptr, i64, i64, ptr, [8 x i8] }>
%"class.Luau::Set" = type { %"class.Luau::DenseHashMap.4", i64 }
%"class.Luau::DenseHashMap.4" = type { %"class.Luau::detail::DenseHashTable.5" }
%"class.Luau::detail::DenseHashTable.5" = type <{ ptr, i64, i64, ptr, [8 x i8] }>
%"class.Luau::DenseHashSet" = type { %"class.Luau::detail::DenseHashTable.7" }
%"class.Luau::detail::DenseHashTable.7" = type <{ ptr, i64, i64, %"class.std::__cxx11::basic_string", [8 x i8] }>
%"class.std::__cxx11::basic_string" = type { %"struct.std::__cxx11::basic_string<char>::_Alloc_hider", i64, %union.anon }
%"struct.std::__cxx11::basic_string<char>::_Alloc_hider" = type { ptr }
%union.anon = type { i64, [8 x i8] }
%"struct.Luau::ToStringResult" = type <{ %"class.std::__cxx11::basic_string", i8, i8, i8, i8, [4 x i8] }>
%"struct.std::_Rb_tree_header" = type { %"struct.std::_Rb_tree_node_base", i64 }
%"struct.std::_Rb_tree_node_base" = type { i32, ptr, ptr, ptr }
%"class.std::map" = type { %"class.std::_Rb_tree.51" }
%"class.std::_Rb_tree.51" = type { %"struct.std::_Rb_tree<std::__cxx11::basic_string<char>, std::pair<const std::__cxx11::basic_string<char>, Luau::Property>, std::_Select1st<std::pair<const std::__cxx11::basic_string<char>, Luau::Property>>, std::less<std::__cxx11::basic_string<char>>>::_Rb_tree_impl" }
%"struct.std::_Rb_tree<std::__cxx11::basic_string<char>, std::pair<const std::__cxx11::basic_string<char>, Luau::Property>, std::_Select1st<std::pair<const std::__cxx11::basic_string<char>, Luau::Property>>, std::less<std::__cxx11::basic_string<char>>>::_Rb_tree_impl" = type { [8 x i8], %"struct.std::_Rb_tree_header" }
%"class.std::optional" = type { %"struct.std::_Optional_base" }
%"struct.std::_Optional_base" = type { %"struct.std::_Optional_payload" }
%"struct.std::_Optional_payload" = type { %"struct.std::_Optional_payload_base.base", [7 x i8] }
%"struct.std::_Optional_payload_base.base" = type <{ %"union.std::_Optional_payload_base<Luau::TableIndexer>::_Storage", i8 }>
%"union.std::_Optional_payload_base<Luau::TableIndexer>::_Storage" = type { %"struct.Luau::TableIndexer" }
%"struct.Luau::TableIndexer" = type { ptr, ptr }
%"struct.Luau::Location" = type { %"struct.Luau::Position", %"struct.Luau::Position" }
%"struct.Luau::Position" = type { i32, i32 }
%"class.std::optional.76" = type { %"struct.std::_Optional_base.77" }
%"struct.std::_Optional_base.77" = type { %"struct.std::_Optional_payload.79" }
%"struct.std::_Optional_payload.79" = type { %"struct.std::_Optional_payload_base.base.81", [7 x i8] }
%"struct.std::_Optional_payload_base.base.81" = type <{ %"union.std::_Optional_payload_base<const Luau::Type *>::_Storage", i8 }>
%"union.std::_Optional_payload_base<const Luau::Type *>::_Storage" = type { ptr }
%class.anon.371 = type { ptr, ptr }
%"class.std::optional.116" = type { %"struct.std::_Optional_base.117" }
%"struct.std::_Optional_base.117" = type { %"struct.std::_Optional_payload.119" }
%"struct.std::_Optional_payload.119" = type { %"struct.std::_Optional_payload_base.base.121", [3 x i8] }
%"struct.std::_Optional_payload_base.base.121" = type <{ %"union.std::_Optional_payload_base<Luau::Location>::_Storage", i8 }>
%"union.std::_Optional_payload_base<Luau::Location>::_Storage" = type { %"struct.Luau::Location" }
%"struct.Luau::ClassType" = type { %"class.std::__cxx11::basic_string", %"class.std::map", %"class.std::optional.76", %"class.std::optional.76", %"class.std::vector.37", %"class.std::shared_ptr.391", %"class.std::__cxx11::basic_string", %"class.std::optional.116", [4 x i8], %"class.std::optional" }
%"class.std::shared_ptr.391" = type { %"class.std::__shared_ptr.392" }
%"class.std::__shared_ptr.392" = type { ptr, %"class.std::__shared_count" }

@.str.183 = private unnamed_addr constant [21 x i8] c"basic_string::append\00", align 1

; Function Attrs: mustprogress nounwind uwtable
define linkonce_odr dso_local noundef i64 @_ZNKSt15__new_allocatorIcE11_M_max_sizeEv(ptr noundef nonnull align 1 dereferenceable(1) %0) #2 comdat align 2 {
  %2 = alloca ptr, align 8
  store ptr %0, ptr %2, align 8, !tbaa !290
  ret i64 9223372036854775807
}

; Function Attrs: mustprogress nounwind uwtable
define linkonce_odr dso_local noundef i64 @_ZNKSt15__new_allocatorIcE8max_sizeEv(ptr noundef nonnull align 1 dereferenceable(1) %0) #2 comdat align 2 {
  %2 = alloca ptr, align 8
  store ptr %0, ptr %2, align 8, !tbaa !290
  %3 = load ptr, ptr %2, align 8
  %4 = call noundef i64 @_ZNKSt15__new_allocatorIcE11_M_max_sizeEv(ptr noundef nonnull align 1 dereferenceable(1) %3) #3
  ret i64 %4
}

; Function Attrs: noinline noreturn nounwind uwtable
define linkonce_odr hidden void @__clang_call_terminate(ptr noundef %0) #13 comdat {
  %2 = call ptr @__cxa_begin_catch(ptr %0) #3
  call void @_ZSt9terminatev() #21
  unreachable
}

; Function Attrs: mustprogress nounwind uwtable
define linkonce_odr dso_local noundef i64 @_ZNSt16allocator_traitsISaIcEE8max_sizeERKS0_(ptr noundef nonnull align 1 dereferenceable(1) %0) #2 comdat align 2 {
  %2 = alloca ptr, align 8
  store ptr %0, ptr %2, align 8, !tbaa !288
  %3 = load ptr, ptr %2, align 8, !tbaa !288
  %4 = call noundef i64 @_ZNKSt15__new_allocatorIcE8max_sizeEv(ptr noundef nonnull align 1 dereferenceable(1) %3) #3
  ret i64 %4
}

; Function Attrs: mustprogress nounwind uwtable
define available_externally noundef nonnull align 1 dereferenceable(1) ptr @_ZNKSt7__cxx1112basic_stringIcSt11char_traitsIcESaIcEE16_M_get_allocatorEv(ptr noundef nonnull align 8 dereferenceable(32) %0) #2 align 2 {
  %2 = alloca ptr, align 8
  store ptr %0, ptr %2, align 8, !tbaa !103
  %3 = load ptr, ptr %2, align 8
  %4 = getelementptr inbounds nuw %"class.std::__cxx11::basic_string", ptr %3, i32 0, i32 0
  ret ptr %4
}

; Function Attrs: mustprogress nounwind uwtable
define available_externally noundef i64 @_ZNKSt7__cxx1112basic_stringIcSt11char_traitsIcESaIcEE8max_sizeEv(ptr noundef nonnull align 8 dereferenceable(32) %0) #2 align 2 personality ptr @__gxx_personality_v0 {
  %2 = alloca ptr, align 8
  store ptr %0, ptr %2, align 8, !tbaa !103
  %3 = load ptr, ptr %2, align 8
  %4 = invoke noundef nonnull align 1 dereferenceable(1) ptr @_ZNKSt7__cxx1112basic_stringIcSt11char_traitsIcESaIcEE16_M_get_allocatorEv(ptr noundef nonnull align 8 dereferenceable(32) %3)
          to label %5 unwind label %9

5:                                                ; preds = %1
  %6 = call noundef i64 @_ZNSt16allocator_traitsISaIcEE8max_sizeERKS0_(ptr noundef nonnull align 1 dereferenceable(1) %4) #3
  %7 = sub i64 %6, 1
  %8 = udiv i64 %7, 2
  ret i64 %8

9:                                                ; preds = %1
  %10 = landingpad { ptr, i32 }
          catch ptr null
  %11 = extractvalue { ptr, i32 } %10, 0
  call void @__clang_call_terminate(ptr %11) #21
  unreachable
}

; Function Attrs: mustprogress uwtable
define available_externally void @_ZNKSt7__cxx1112basic_stringIcSt11char_traitsIcESaIcEE15_M_check_lengthEmmPKc(ptr noundef nonnull align 8 dereferenceable(32) %0, i64 noundef %1, i64 noundef %2, ptr noundef %3) #5 align 2 {
  %5 = alloca ptr, align 8
  %6 = alloca i64, align 8
  %7 = alloca i64, align 8
  %8 = alloca ptr, align 8
  store ptr %0, ptr %5, align 8, !tbaa !103
  store i64 %1, ptr %6, align 8, !tbaa !200
  store i64 %2, ptr %7, align 8, !tbaa !200
  store ptr %3, ptr %8, align 8, !tbaa !11
  %9 = load ptr, ptr %5, align 8
  %10 = call noundef i64 @_ZNKSt7__cxx1112basic_stringIcSt11char_traitsIcESaIcEE8max_sizeEv(ptr noundef nonnull align 8 dereferenceable(32) %9) #3
  %11 = call noundef i64 @_ZNKSt7__cxx1112basic_stringIcSt11char_traitsIcESaIcEE4sizeEv(ptr noundef nonnull align 8 dereferenceable(32) %9) #3
  %12 = load i64, ptr %6, align 8, !tbaa !200
  %13 = sub i64 %11, %12
  %14 = sub i64 %10, %13
  %15 = load i64, ptr %7, align 8, !tbaa !200
  %16 = icmp ult i64 %14, %15
  br i1 %16, label %17, label %19

17:                                               ; preds = %4
  %18 = load ptr, ptr %8, align 8, !tbaa !11
  call void @_ZSt20__throw_length_errorPKc(ptr noundef %18) #22
  unreachable

19:                                               ; preds = %4
  ret void
}

; Function Attrs: mustprogress uwtable
define available_externally noundef nonnull align 8 dereferenceable(32) ptr @_ZNSt7__cxx1112basic_stringIcSt11char_traitsIcESaIcEE6appendEPKcm(ptr noundef nonnull align 8 dereferenceable(32) %0, ptr noundef %1, i64 noundef %2) #5 align 2 {
  %4 = alloca ptr, align 8
  %5 = alloca ptr, align 8
  %6 = alloca i64, align 8
  store ptr %0, ptr %4, align 8, !tbaa !103
  store ptr %1, ptr %5, align 8, !tbaa !11
  store i64 %2, ptr %6, align 8, !tbaa !200
  %7 = load ptr, ptr %4, align 8
  %8 = load i64, ptr %6, align 8, !tbaa !200
  call void @_ZNKSt7__cxx1112basic_stringIcSt11char_traitsIcESaIcEE15_M_check_lengthEmmPKc(ptr noundef nonnull align 8 dereferenceable(32) %7, i64 noundef 0, i64 noundef %8, ptr noundef @.str.183)
  %9 = load ptr, ptr %5, align 8, !tbaa !11
  %10 = load i64, ptr %6, align 8, !tbaa !200
  %11 = call noundef nonnull align 8 dereferenceable(32) ptr @_ZNSt7__cxx1112basic_stringIcSt11char_traitsIcESaIcEE9_M_appendEPKcm(ptr noundef nonnull align 8 dereferenceable(32) %7, ptr noundef %9, i64 noundef %10)
  ret ptr %11
}

; Function Attrs: mustprogress nounwind uwtable
define available_externally noundef i64 @_ZNKSt7__cxx1112basic_stringIcSt11char_traitsIcESaIcEE4sizeEv(ptr noundef nonnull align 8 dereferenceable(32) %0) #2 align 2 {
  %2 = alloca ptr, align 8
  store ptr %0, ptr %2, align 8, !tbaa !103
  %3 = load ptr, ptr %2, align 8
  %4 = getelementptr inbounds nuw %"class.std::__cxx11::basic_string", ptr %3, i32 0, i32 1
  %5 = load i64, ptr %4, align 8, !tbaa !236
  ret i64 %5
}

; Function Attrs: mustprogress nounwind uwtable
define available_externally noundef ptr @_ZNKSt7__cxx1112basic_stringIcSt11char_traitsIcESaIcEE7_M_dataEv(ptr noundef nonnull align 8 dereferenceable(32) %0) #2 align 2 {
  %2 = alloca ptr, align 8
  store ptr %0, ptr %2, align 8, !tbaa !103
  %3 = load ptr, ptr %2, align 8
  %4 = getelementptr inbounds nuw %"class.std::__cxx11::basic_string", ptr %3, i32 0, i32 0
  %5 = getelementptr inbounds nuw %"struct.std::__cxx11::basic_string<char>::_Alloc_hider", ptr %4, i32 0, i32 0
  %6 = load ptr, ptr %5, align 8, !tbaa !514
  ret ptr %6
}

; Function Attrs: mustprogress uwtable
define available_externally noundef nonnull align 8 dereferenceable(32) ptr @_ZNSt7__cxx1112basic_stringIcSt11char_traitsIcESaIcEE6appendERKS4_(ptr noundef nonnull align 8 dereferenceable(32) %0, ptr noundef nonnull align 8 dereferenceable(32) %1) #5 align 2 {
  %3 = alloca ptr, align 8
  %4 = alloca ptr, align 8
  store ptr %0, ptr %3, align 8, !tbaa !103
  store ptr %1, ptr %4, align 8, !tbaa !103
  %5 = load ptr, ptr %3, align 8
  %6 = load ptr, ptr %4, align 8, !tbaa !103
  %7 = call noundef ptr @_ZNKSt7__cxx1112basic_stringIcSt11char_traitsIcESaIcEE7_M_dataEv(ptr noundef nonnull align 8 dereferenceable(32) %6)
  %8 = load ptr, ptr %4, align 8, !tbaa !103
  %9 = call noundef i64 @_ZNKSt7__cxx1112basic_stringIcSt11char_traitsIcESaIcEE4sizeEv(ptr noundef nonnull align 8 dereferenceable(32) %8) #3
  %10 = call noundef nonnull align 8 dereferenceable(32) ptr @_ZNSt7__cxx1112basic_stringIcSt11char_traitsIcESaIcEE6appendEPKcm(ptr noundef nonnull align 8 dereferenceable(32) %5, ptr noundef %7, i64 noundef %9)
  ret ptr %10
}

; Function Attrs: mustprogress uwtable
define available_externally noundef nonnull align 8 dereferenceable(32) ptr @_ZNSt7__cxx1112basic_stringIcSt11char_traitsIcESaIcEEpLERKS4_(ptr noundef nonnull align 8 dereferenceable(32) %0, ptr noundef nonnull align 8 dereferenceable(32) %1) #5 align 2 {
  %3 = alloca ptr, align 8
  %4 = alloca ptr, align 8
  store ptr %0, ptr %3, align 8, !tbaa !103
  store ptr %1, ptr %4, align 8, !tbaa !103
  %5 = load ptr, ptr %3, align 8
  %6 = load ptr, ptr %4, align 8, !tbaa !103
  %7 = call noundef nonnull align 8 dereferenceable(32) ptr @_ZNSt7__cxx1112basic_stringIcSt11char_traitsIcESaIcEE6appendERKS4_(ptr noundef nonnull align 8 dereferenceable(32) %5, ptr noundef nonnull align 8 dereferenceable(32) %6)
  ret ptr %7
}

; Function Attrs: mustprogress nounwind uwtable
define available_externally noundef i64 @_ZNKSt7__cxx1112basic_stringIcSt11char_traitsIcESaIcEE6lengthEv(ptr noundef nonnull align 8 dereferenceable(32) %0) #2 align 2 {
  %2 = alloca ptr, align 8
  store ptr %0, ptr %2, align 8, !tbaa !103
  %3 = load ptr, ptr %2, align 8
  %4 = getelementptr inbounds nuw %"class.std::__cxx11::basic_string", ptr %3, i32 0, i32 1
  %5 = load i64, ptr %4, align 8, !tbaa !236
  ret i64 %5
}

; Function Attrs: mustprogress uwtable
define linkonce_odr dso_local void @_ZN4Luau16StringifierState4emitERKNSt7__cxx1112basic_stringIcSt11char_traitsIcESaIcEEE(ptr noundef nonnull align 8 dereferenceable(224) %0, ptr noundef nonnull align 8 dereferenceable(32) %1) #5 comdat align 2 {
  %3 = alloca ptr, align 8
  %4 = alloca ptr, align 8
  store ptr %0, ptr %3, align 8, !tbaa !44
  store ptr %1, ptr %4, align 8, !tbaa !103
  %5 = load ptr, ptr %3, align 8
  %6 = getelementptr inbounds nuw %"struct.Luau::StringifierState", ptr %5, i32 0, i32 0
  %7 = load ptr, ptr %6, align 8, !tbaa !51
  %8 = getelementptr inbounds nuw %"struct.Luau::ToStringOptions", ptr %7, i32 0, i32 8
  %9 = load i64, ptr %8, align 8, !tbaa !78
  %10 = icmp ugt i64 %9, 0
  br i1 %10, label %11, label %22

11:                                               ; preds = %2
  %12 = getelementptr inbounds nuw %"struct.Luau::StringifierState", ptr %5, i32 0, i32 1
  %13 = load ptr, ptr %12, align 8, !tbaa !100
  %14 = getelementptr inbounds nuw %"struct.Luau::ToStringResult", ptr %13, i32 0, i32 0
  %15 = call noundef i64 @_ZNKSt7__cxx1112basic_stringIcSt11char_traitsIcESaIcEE6lengthEv(ptr noundef nonnull align 8 dereferenceable(32) %14) #3
  %16 = getelementptr inbounds nuw %"struct.Luau::StringifierState", ptr %5, i32 0, i32 0
  %17 = load ptr, ptr %16, align 8, !tbaa !51
  %18 = getelementptr inbounds nuw %"struct.Luau::ToStringOptions", ptr %17, i32 0, i32 8
  %19 = load i64, ptr %18, align 8, !tbaa !78
  %20 = icmp ugt i64 %15, %19
  br i1 %20, label %21, label %22

21:                                               ; preds = %11
  br label %28

22:                                               ; preds = %11, %2
  %23 = load ptr, ptr %4, align 8, !tbaa !103
  %24 = getelementptr inbounds nuw %"struct.Luau::StringifierState", ptr %5, i32 0, i32 1
  %25 = load ptr, ptr %24, align 8, !tbaa !100
  %26 = getelementptr inbounds nuw %"struct.Luau::ToStringResult", ptr %25, i32 0, i32 0
  %27 = call noundef nonnull align 8 dereferenceable(32) ptr @_ZNSt7__cxx1112basic_stringIcSt11char_traitsIcESaIcEEpLERKS4_(ptr noundef nonnull align 8 dereferenceable(32) %26, ptr noundef nonnull align 8 dereferenceable(32) %23)
  br label %28

28:                                               ; preds = %22, %21
  ret void
}

; Function Attrs: mustprogress uwtable
define linkonce_odr dso_local void @_ZN4Luau15TypeStringifierclEPKNS_4TypeERKNS_9ClassTypeE(ptr noundef nonnull align 8 dereferenceable(8) %0, ptr noundef %1, ptr noundef nonnull align 8 dereferenceable(232) %2) #5 comdat align 2 {
  %4 = alloca ptr, align 8
  %5 = alloca ptr, align 8
  %6 = alloca ptr, align 8
  store ptr %0, ptr %4, align 8, !tbaa !35
  store ptr %1, ptr %5, align 8, !tbaa !107
  store ptr %2, ptr %6, align 8, !tbaa !928
  %7 = load ptr, ptr %4, align 8
  %8 = getelementptr inbounds nuw %"struct.Luau::TypeStringifier", ptr %7, i32 0, i32 0
  %9 = load ptr, ptr %8, align 8, !tbaa !39
  %10 = load ptr, ptr %6, align 8, !tbaa !928
  %11 = getelementptr inbounds nuw %"struct.Luau::ClassType", ptr %10, i32 0, i32 0
  call void @_ZN4Luau16StringifierState4emitERKNSt7__cxx1112basic_stringIcSt11char_traitsIcESaIcEEE(ptr noundef nonnull align 8 dereferenceable(224) %9, ptr noundef nonnull align 8 dereferenceable(32) %11)
  ret void
}

; Function Attrs: inlinehint mustprogress uwtable
define linkonce_odr dso_local void @_ZZN4Luau15TypeStringifier9stringifyEPKNS_4TypeEENKUlOT_E_clIRKNS_9ClassTypeEEEDaS5_(ptr noundef nonnull align 8 dereferenceable(16) %0, ptr noundef nonnull align 8 dereferenceable(232) %1) #8 comdat align 2 {
  %3 = alloca ptr, align 8
  %4 = alloca ptr, align 8
  store ptr %0, ptr %3, align 8, !tbaa !137
  store ptr %1, ptr %4, align 8, !tbaa !928
  %5 = load ptr, ptr %3, align 8
  %6 = getelementptr inbounds nuw %class.anon.371, ptr %5, i32 0, i32 0
  %7 = load ptr, ptr %6, align 8, !tbaa !205
  %8 = getelementptr inbounds nuw %class.anon.371, ptr %5, i32 0, i32 1
  %9 = load ptr, ptr %8, align 8, !tbaa !207
  %10 = load ptr, ptr %4, align 8, !tbaa !928
  call void @_ZN4Luau15TypeStringifierclEPKNS_4TypeERKNS_9ClassTypeE(ptr noundef nonnull align 8 dereferenceable(8) %7, ptr noundef %9, ptr noundef nonnull align 8 dereferenceable(232) %10)
  ret void
}

; Function Attrs: mustprogress uwtable
define internal void @_ZN4LuauL8fnVisitVIZNS_15TypeStringifier9stringifyEPKNS_4TypeEEUlOT_E_KNS_9ClassTypeEEEvRS5_PNSt11conditionalIXsr3stdE10is_const_vIT0_EEKvvE4typeE(ptr noundef nonnull align 8 dereferenceable(16) %0, ptr noundef %1) #5 {
  %3 = alloca ptr, align 8
  %4 = alloca ptr, align 8
  store ptr %0, ptr %3, align 8, !tbaa !137
  store ptr %1, ptr %4, align 8, !tbaa !137
  %5 = load ptr, ptr %3, align 8, !tbaa !137
  %6 = load ptr, ptr %4, align 8, !tbaa !137
  call void @_ZZN4Luau15TypeStringifier9stringifyEPKNS_4TypeEENKUlOT_E_clIRKNS_9ClassTypeEEEDaS5_(ptr noundef nonnull align 8 dereferenceable(16) %5, ptr noundef nonnull align 8 dereferenceable(232) %6)
  ret void
}